; Function Attrs: mustprogress uwtable
define hidden void @_ZNK2cv10BRISK_Impl29computeKeypointsNoOrientationERKNS_11_InputArrayES3_RSt6vectorINS_8KeyPointESaIS5_EE(ptr nocapture noundef nonnull readonly align 8 dereferenceable(96) %0, ptr noundef nonnull align 8 dereferenceable(24) %1, ptr noundef nonnull align 8 dereferenceable(24) %2, ptr noundef nonnull align 8 dereferenceable(24) %3) local_unnamed_addr #0 align 2 personality ptr @__gxx_personality_v0 {
  %5 = alloca %"class.cv::Mat", align 8
  %6 = alloca %"class.cv::Mat", align 8
  %7 = alloca %"class.cv::_OutputArray", align 8
  %8 = alloca %"class.cv::BriskScaleSpace", align 8
  %9 = tail call noundef i32 @_ZNK2cv11_InputArray4kindEv(ptr noundef nonnull align 8 dereferenceable(24) %1), !noalias !33
  %10 = icmp eq i32 %9, 65536
  br i1 %10, label %11, label %14

11:                                               ; preds = %4
  %12 = getelementptr inbounds i8, ptr %1, i64 8
  %13 = load ptr, ptr %12, align 8, !noalias !33
  call void @_ZN2cv3MatC1ERKS0_(ptr noundef nonnull align 8 dereferenceable(96) %5, ptr noundef nonnull align 8 dereferenceable(96) %13)
  br label %_ZNK2cv11_InputArray6getMatEi.exit

14:                                               ; preds = %4
  call void @_ZNK2cv11_InputArray7getMat_Ei(ptr dead_on_unwind nonnull writable sret(%"class.cv::Mat") align 8 %5, ptr noundef nonnull align 8 dereferenceable(24) %1, i32 noundef -1)
  br label %_ZNK2cv11_InputArray6getMatEi.exit

_ZNK2cv11_InputArray6getMatEi.exit:               ; preds = %11, %14
  %15 = invoke noundef i32 @_ZNK2cv11_InputArray4kindEv(ptr noundef nonnull align 8 dereferenceable(24) %2)
          to label %.noexc unwind label %26

.noexc:                                           ; preds = %_ZNK2cv11_InputArray6getMatEi.exit
  %16 = icmp eq i32 %15, 65536
  br i1 %16, label %17, label %20

17:                                               ; preds = %.noexc
  %18 = getelementptr inbounds i8, ptr %2, i64 8
  %19 = load ptr, ptr %18, align 8, !noalias !36
  invoke void @_ZN2cv3MatC1ERKS0_(ptr noundef nonnull align 8 dereferenceable(96) %6, ptr noundef nonnull align 8 dereferenceable(96) %19)
          to label %_ZNK2cv11_InputArray6getMatEi.exit13 unwind label %26

20:                                               ; preds = %.noexc
  invoke void @_ZNK2cv11_InputArray7getMat_Ei(ptr dead_on_unwind nonnull writable sret(%"class.cv::Mat") align 8 %6, ptr noundef nonnull align 8 dereferenceable(24) %2, i32 noundef -1)
          to label %_ZNK2cv11_InputArray6getMatEi.exit13 unwind label %26

_ZNK2cv11_InputArray6getMatEi.exit13:             ; preds = %17, %20
  %21 = load i32, ptr %5, align 8
  %22 = and i32 %21, 4095
  %.not = icmp eq i32 %22, 0
  br i1 %.not, label %30, label %23

23:                                               ; preds = %_ZNK2cv11_InputArray6getMatEi.exit13
  %24 = getelementptr inbounds i8, ptr %7, i64 8
  %25 = getelementptr inbounds i8, ptr %7, i64 16
  store i64 0, ptr %25, align 8
  store i32 33619968, ptr %7, align 8
  store ptr %5, ptr %24, align 8
  invoke void @_ZN2cv8cvtColorERKNS_11_InputArrayERKNS_12_OutputArrayEii(ptr noundef nonnull align 8 dereferenceable(24) %1, ptr noundef nonnull align 8 dereferenceable(24) %7, i32 noundef 6, i32 noundef 0)
          to label %30 unwind label %28

26:                                               ; preds = %20, %17, %_ZNK2cv11_InputArray6getMatEi.exit
  %27 = landingpad { ptr, i32 }
          cleanup
  br label %44

28:                                               ; preds = %23
  %29 = landingpad { ptr, i32 }
          cleanup
  br label %43

30:                                               ; preds = %23, %_ZNK2cv11_InputArray6getMatEi.exit13
  %31 = getelementptr inbounds i8, ptr %0, i64 12
  %32 = load i32, ptr %31, align 4
  %33 = getelementptr inbounds i8, ptr %8, i64 8
  call void @llvm.memset.p0.i64(ptr noundef nonnull align 8 dereferenceable(24) %33, i8 0, i64 24, i1 false)
  %34 = icmp eq i32 %32, 0
  %35 = shl nsw i32 %32, 1
  %storemerge.i = select i1 %34, i32 1, i32 %35
  store i32 %storemerge.i, ptr %8, align 8
  invoke void @_ZN2cv15BriskScaleSpace16constructPyramidERKNS_3MatE(ptr noundef nonnull align 8 dereferenceable(32) %8, ptr noundef nonnull align 8 dereferenceable(96) %5)
          to label %36 unwind label %41

36:                                               ; preds = %30
  %37 = getelementptr inbounds i8, ptr %0, i64 8
  %38 = load i32, ptr %37, align 8
  invoke void @_ZN2cv15BriskScaleSpace12getKeypointsEiRSt6vectorINS_8KeyPointESaIS2_EE(ptr noundef nonnull align 8 dereferenceable(32) %8, i32 noundef %38, ptr noundef nonnull align 8 dereferenceable(24) %3)
          to label %39 unwind label %41

39:                                               ; preds = %36
  invoke void @_ZN2cv15KeyPointsFilter15runByPixelsMaskERSt6vectorINS_8KeyPointESaIS2_EERKNS_3MatE(ptr noundef nonnull align 8 dereferenceable(24) %3, ptr noundef nonnull align 8 dereferenceable(96) %6)
          to label %40 unwind label %41

40:                                               ; preds = %39
  call void @_ZNSt6vectorIN2cv10BriskLayerESaIS1_EED2Ev(ptr noundef nonnull align 8 dereferenceable(24) %33) #22
  call void @_ZN2cv3MatD1Ev(ptr noundef nonnull align 8 dereferenceable(96) %6) #22
  call void @_ZN2cv3MatD1Ev(ptr noundef nonnull align 8 dereferenceable(96) %5) #22
  ret void

41:                                               ; preds = %39, %36, %30
  %42 = landingpad { ptr, i32 }
          cleanup
  call void @_ZNSt6vectorIN2cv10BriskLayerESaIS1_EED2Ev(ptr noundef nonnull align 8 dereferenceable(24) %33) #22
  br label %43

43:                                               ; preds = %41, %28
  %.pn = phi { ptr, i32 } [ %42, %41 ], [ %29, %28 ]
  call void @_ZN2cv3MatD1Ev(ptr noundef nonnull align 8 dereferenceable(96) %6) #22
  br label %44

44:                                               ; preds = %43, %26
  %.pn.pn = phi { ptr, i32 } [ %.pn, %43 ], [ %27, %26 ]
  call void @_ZN2cv3MatD1Ev(ptr noundef nonnull align 8 dereferenceable(96) %5) #22
  resume { ptr, i32 } %.pn.pn
}